target datalayout = "e-m:e-p270:32:32-p271:32:32-p272:64:64-i64:64-i128:128-f80:128-n8:16:32:64-S128"
target triple = "x86_64-unknown-linux-gnu"

module asm ".section \22.export_symbol\22,\22a\22 ; __export_symbol___acpi_mdiobus_register: ; .asciz \22\22 ; .asciz \22\22 ; .balign 8 ; .quad __acpi_mdiobus_register ; .previous"

@__UNIQUE_ID_author440 = internal constant [61 x i8] c"acpi_mdio.author=Calvin Johnson <calvin.johnson@oss.nxp.com>\00", section ".modinfo", align 1
@__UNIQUE_ID_file441 = internal constant [42 x i8] c"acpi_mdio.file=drivers/net/mdio/acpi_mdio\00", section ".modinfo", align 1
@__UNIQUE_ID_license442 = internal constant [22 x i8] c"acpi_mdio.license=GPL\00", section ".modinfo", align 1
@__UNIQUE_ID_description443 = internal constant [61 x i8] c"acpi_mdio.description=ACPI MDIO bus (Ethernet PHY) accessors\00", section ".modinfo", align 1
@.str = private unnamed_addr constant [39 x i8] c"MDIO device at address %d is missing.\0A\00", align 1
@__UNIQUE_ID___addressable___acpi_mdiobus_register444 = internal global ptr @__acpi_mdiobus_register, section ".discard.addressable", align 8
@llvm.compiler.used = appending global [5 x ptr] [ptr @__UNIQUE_ID___addressable___acpi_mdiobus_register444, ptr @__UNIQUE_ID_author440, ptr @__UNIQUE_ID_description443, ptr @__UNIQUE_ID_file441, ptr @__UNIQUE_ID_license442], section "llvm.metadata"

; Function Attrs: fn_ret_thunk_extern nounwind null_pointer_is_valid
define dso_local i32 @__acpi_mdiobus_register(ptr noundef %0, ptr noundef %1, ptr noundef %2) #0 align 16 {
  %4 = alloca i32, align 4
  call void @llvm.lifetime.start.p0(i64 4, ptr nonnull %4) #4
  store i32 0, ptr %4, align 4, !annotation !5
  %5 = getelementptr inbounds i8, ptr %0, i64 2184
  store i32 -1, ptr %5, align 8
  %6 = tail call i32 @__mdiobus_register(ptr noundef %0, ptr noundef %2) #4
  %7 = icmp eq i32 %6, 0
  br i1 %7, label %8, label %46

8:                                                ; preds = %3
  %9 = getelementptr inbounds i8, ptr %0, i64 1200
  %10 = tail call zeroext i1 @is_acpi_device_node(ptr noundef %1) #4
  %11 = getelementptr i8, ptr %1, i64 -16
  %12 = icmp ne ptr %11, null
  %13 = and i1 %12, %10
  br i1 %13, label %14, label %18

14:                                               ; preds = %8
  %15 = tail call zeroext i1 @is_acpi_device_node(ptr noundef %1) #4
  %16 = select i1 %15, ptr %11, ptr null
  %17 = getelementptr inbounds i8, ptr %16, i64 16
  br label %18

18:                                               ; preds = %14, %8
  %19 = phi ptr [ %17, %14 ], [ null, %8 ]
  tail call void @set_primary_fwnode(ptr noundef %9, ptr noundef %19) #4
  %20 = tail call ptr @fwnode_get_next_child_node(ptr noundef %1, ptr noundef null) #4
  %21 = icmp eq ptr %20, null
  br i1 %21, label %46, label %22

22:                                               ; preds = %43, %18
  %23 = phi ptr [ %44, %43 ], [ %20, %18 ]
  %24 = call zeroext i1 @is_acpi_device_node(ptr noundef nonnull %23) #4
  %25 = getelementptr i8, ptr %23, i64 -16
  %26 = icmp ne ptr %25, null
  %27 = and i1 %26, %24
  br i1 %27, label %28, label %31

28:                                               ; preds = %22
  %29 = getelementptr i8, ptr %23, i64 -8
  %30 = load ptr, ptr %29, align 8
  br label %31

31:                                               ; preds = %28, %22
  %32 = phi ptr [ %30, %28 ], [ null, %22 ]
  %33 = call i32 @acpi_get_local_address(ptr noundef %32, ptr noundef nonnull %4) #4
  %34 = icmp ne i32 %33, 0
  %35 = load i32, ptr %4, align 4
  %36 = icmp ugt i32 %35, 31
  %37 = select i1 %34, i1 true, i1 %36
  br i1 %37, label %43, label %38

38:                                               ; preds = %31
  %39 = call i32 @fwnode_mdiobus_register_phy(ptr noundef %0, ptr noundef nonnull %23, i32 noundef %35) #4
  %40 = icmp eq i32 %39, -19
  br i1 %40, label %41, label %43

41:                                               ; preds = %38
  %42 = load i32, ptr %4, align 4
  call void (ptr, ptr, ...) @_dev_err(ptr noundef %9, ptr noundef nonnull @.str, i32 noundef %42) #5
  br label %43

43:                                               ; preds = %41, %38, %31
  %44 = call ptr @fwnode_get_next_child_node(ptr noundef %1, ptr noundef nonnull %23) #4
  %45 = icmp eq ptr %44, null
  br i1 %45, label %46, label %22, !llvm.loop !6

46:                                               ; preds = %43, %18, %3
  %47 = phi i32 [ %6, %3 ], [ 0, %18 ], [ 0, %43 ]
  call void @llvm.lifetime.end.p0(i64 4, ptr nonnull %4) #4
  ret i32 %47
}

; Function Attrs: nocallback nofree nosync nounwind willreturn memory(argmem: readwrite)
declare void @llvm.lifetime.start.p0(i64 immarg, ptr nocapture) #1

; Function Attrs: null_pointer_is_valid
declare dso_local i32 @__mdiobus_register(ptr noundef, ptr noundef) local_unnamed_addr #2

; Function Attrs: null_pointer_is_valid
declare dso_local void @set_primary_fwnode(ptr noundef, ptr noundef) local_unnamed_addr #2

; Function Attrs: null_pointer_is_valid
declare dso_local zeroext i1 @is_acpi_device_node(ptr noundef) local_unnamed_addr #2

; Function Attrs: nocallback nofree nosync nounwind willreturn memory(argmem: readwrite)
declare void @llvm.lifetime.end.p0(i64 immarg, ptr nocapture) #1

; Function Attrs: null_pointer_is_valid
declare dso_local ptr @fwnode_get_next_child_node(ptr noundef, ptr noundef) local_unnamed_addr #2

; Function Attrs: null_pointer_is_valid
declare dso_local i32 @acpi_get_local_address(ptr noundef, ptr noundef) local_unnamed_addr #2

; Function Attrs: null_pointer_is_valid
declare dso_local i32 @fwnode_mdiobus_register_phy(ptr noundef, ptr noundef, i32 noundef) local_unnamed_addr #2

; Function Attrs: cold null_pointer_is_valid
declare dso_local void @_dev_err(ptr noundef, ptr noundef, ...) local_unnamed_addr #3


!llvm.module.flags = !{!0, !1, !2, !3, !4}

!0 = !{i32 1, !"wchar_size", i32 2}
!1 = !{i32 8, !"cf-protection-branch", i32 1}
!2 = !{i32 4, !"function_return_thunk_extern", i32 1}
!3 = !{i32 4, !"indirect_branch_cs_prefix", i32 1}
!4 = !{i32 4, !"SkipRaxSetup", i32 1}
!5 = !{!"auto-init"}
!6 = distinct !{!6, !7, !8}
!7 = !{!"llvm.loop.mustprogress"}
!8 = !{!"llvm.loop.unroll.disable"}
